; Function Attrs: mustprogress uwtable
define void @_ZN5boost10filesystem6detail14create_symlinkERKNS0_4pathES4_PNS_6system10error_codeE(ptr noundef nonnull align 8 dereferenceable(32) %0, ptr noundef nonnull align 8 dereferenceable(32) %1, ptr noundef %2) local_unnamed_addr #5 personality ptr @__gxx_personality_v0 {
  %.not = icmp eq ptr %2, null
  br i1 %.not, label %5, label %4

4:                                                ; preds = %3
  tail call void @llvm.memset.p0.i64(ptr noundef nonnull align 8 dereferenceable(24) %2, i8 0, i64 24, i1 false)
  br label %5

5:                                                ; preds = %4, %3
  %6 = load ptr, ptr %0, align 8, !tbaa !13
  %7 = load ptr, ptr %1, align 8, !tbaa !13
  %8 = tail call i32 @symlink(ptr noundef %6, ptr noundef %7) #27
  %9 = icmp slt i32 %8, 0
  br i1 %9, label %10, label %13, !prof !41

10:                                               ; preds = %5
  %11 = tail call ptr @__errno_location() #30
  %12 = load i32, ptr %11, align 4, !tbaa !19
  tail call void @_ZN5boost10filesystem10emit_errorEiRKNS0_4pathES3_PNS_6system10error_codeEPKc(i32 noundef %12, ptr noundef nonnull align 8 dereferenceable(32) %0, ptr noundef nonnull align 8 dereferenceable(32) %1, ptr noundef %2, ptr noundef nonnull @.str.10)
  br label %13

13:                                               ; preds = %10, %5
  ret void
}